; Function Attrs: mustprogress uwtable
define void @_ZN5arrow13ListViewArrayC2ESt10shared_ptrINS_9ArrayDataEE(ptr noundef nonnull align 8 dereferenceable(72) %this, ptr noundef nonnull %data) unnamed_addr #0 align 2 personality ptr @__gxx_personality_v0 {
entry:
  %data_.i.i.i = getelementptr inbounds i8, ptr %this, i64 8
  tail call void @llvm.memset.p0.i64(ptr noundef nonnull align 8 dereferenceable(56) %data_.i.i.i, i8 0, i64 56, i1 false)
  %raw_value_sizes_.i = getelementptr inbounds i8, ptr %this, i64 64
  store ptr null, ptr %raw_value_sizes_.i, align 8
  store ptr getelementptr inbounds ({ [5 x ptr] }, ptr @_ZTVN5arrow13ListViewArrayE, i64 0, i32 0, i64 2), ptr %this, align 8
  invoke void @_ZN5arrow8internal11SetListDataINS_12ListViewTypeEEEvPNS_22VarLengthListLikeArrayIT_EERKSt10shared_ptrINS_9ArrayDataEENS_4Type4typeE(ptr noundef nonnull %this, ptr noundef nonnull align 8 dereferenceable(16) %data, i32 noundef 41)
          to label %.noexc unwind label %lpad

.noexc:                                           ; preds = %entry
  %0 = load ptr, ptr %data, align 8
  %buffers.i.i = getelementptr inbounds i8, ptr %0, i64 40
  %1 = load ptr, ptr %buffers.i.i, align 8
  %add.ptr.i.i.i = getelementptr inbounds i8, ptr %1, i64 32
  %2 = load ptr, ptr %add.ptr.i.i.i, align 8
  %cmp.i.not.i.i = icmp eq ptr %2, null
  br i1 %cmp.i.not.i.i, label %invoke.cont, label %land.lhs.true.i.i

land.lhs.true.i.i:                                ; preds = %.noexc
  %is_cpu_.i.i.i = getelementptr inbounds i8, ptr %2, i64 9
  %3 = load i8, ptr %is_cpu_.i.i.i, align 1
  %4 = and i8 %3, 1
  %tobool.i.not.i.i = icmp eq i8 %4, 0
  br i1 %tobool.i.not.i.i, label %invoke.cont, label %if.then.i.i

if.then.i.i:                                      ; preds = %land.lhs.true.i.i
  %data_.i.i.i1 = getelementptr inbounds i8, ptr %2, i64 16
  %5 = load ptr, ptr %data_.i.i.i1, align 8
  br label %invoke.cont

invoke.cont:                                      ; preds = %if.then.i.i, %land.lhs.true.i.i, %.noexc
  %retval.0.i.i = phi ptr [ %5, %if.then.i.i ], [ null, %land.lhs.true.i.i ], [ null, %.noexc ]
  store ptr %retval.0.i.i, ptr %raw_value_sizes_.i, align 8
  ret void

lpad:                                             ; preds = %entry
  %6 = landingpad { ptr, i32 }
          cleanup
  tail call void @_ZN5arrow22VarLengthListLikeArrayINS_12ListViewTypeEED2Ev(ptr noundef nonnull align 8 dereferenceable(64) %this) #18
  resume { ptr, i32 } %6
}